target datalayout = "e-m:e-p270:32:32-p271:32:32-p272:64:64-i64:64-i128:128-f80:128-n8:16:32:64-S128"
target triple = "x86_64-pc-linux-gnu"

%class.QString = type { %struct.QArrayDataPointer }
%struct.QArrayDataPointer = type { ptr, ptr, i64 }
%class.GeometryStateDialog = type { %class.QDialog, %class.QString, ptr }
%class.QDialog = type { %class.QWidget }
%class.QWidget = type { %class.QObject, %class.QPaintDevice.base, ptr }
%class.QObject = type { ptr, %class.QScopedPointer }
%class.QScopedPointer = type { ptr }
%class.QPaintDevice.base = type <{ ptr, i16 }>
%class.QList = type { %struct.QArrayDataPointer.0 }
%struct.QArrayDataPointer.0 = type { ptr, ptr, i64 }
%class.QVariant = type { %"struct.QVariant::Private" }
%"struct.QVariant::Private" = type { %union.anon, i64 }
%union.anon = type { ptr, [16 x i8] }
%class.WiresharkDialog = type <{ %class.GeometryStateDialog, ptr, i8, [7 x i8], %class.QString, %class.QList, i32, i8, [3 x i8] }>

; Function Attrs: mustprogress null_pointer_is_valid sspstrong uwtable
define void @_ZN18ConversationDialog12followStreamEv(ptr noundef align 8 dereferenceable_or_null(185) %0) #4 align 2 personality ptr @__gxx_personality_v0 {
  %2 = alloca ptr, align 8
  %3 = alloca %class.QVariant, align 8
  %4 = alloca ptr, align 8
  %5 = alloca i32, align 4
  %6 = alloca i32, align 4
  %7 = alloca i32, align 4
  %8 = alloca i32, align 4
  %9 = alloca %class.QVariant, align 8
  store ptr %0, ptr %2, align 8
  %10 = load ptr, ptr %2, align 8
  %11 = getelementptr inbounds nuw %class.WiresharkDialog, ptr %10, i32 0, i32 2
  %12 = load i8, ptr %11, align 8, !range !6, !noundef !7
  %13 = trunc i8 %12 to i1
  br i1 %13, label %14, label %15

14:                                               ; preds = %1
  br label %48

15:                                               ; preds = %1
  call void @llvm.lifetime.start.p0(i64 32, ptr %3) #3
  %16 = call noundef ptr @_ZNK18TrafficTableDialog10trafficTabEv(ptr noundef align 8 dereferenceable_or_null(160) %10)
  call void @_ZN10TrafficTab15currentItemDataEi(ptr dead_on_unwind writable sret(%class.QVariant) align 8 %3, ptr noundef align 8 dereferenceable_or_null(130) %16, i32 noundef 260)
  %17 = invoke noundef zeroext i1 @_ZNK8QVariant6isNullEv(ptr noundef align 8 dereferenceable_or_null(32) %3)
          to label %18 unwind label %20

18:                                               ; preds = %15
  br i1 %17, label %19, label %24

19:                                               ; preds = %18
  store i32 1, ptr %6, align 4
  br label %46

20:                                               ; preds = %15
  %21 = landingpad { ptr, i32 }
          cleanup
  %22 = extractvalue { ptr, i32 } %21, 0
  store ptr %22, ptr %4, align 8
  %23 = extractvalue { ptr, i32 } %21, 1
  store i32 %23, ptr %5, align 4
  br label %64

24:                                               ; preds = %18
  call void @llvm.lifetime.start.p0(i64 4, ptr %7) #3
  %25 = invoke noundef i32 @_ZNK8QVariant5toIntEPb(ptr noundef align 8 dereferenceable_or_null(32) %3, ptr noundef null)
          to label %26 unwind label %32

26:                                               ; preds = %24
  store i32 %25, ptr %7, align 4
  %27 = load i32, ptr %7, align 4
  %28 = invoke ptr @get_follow_by_proto_id(i32 noundef %27)
          to label %29 unwind label %32

29:                                               ; preds = %26
  %30 = icmp eq ptr %28, null
  br i1 %30, label %31, label %36

31:                                               ; preds = %29
  store i32 1, ptr %6, align 4
  br label %45

32:                                               ; preds = %26, %24
  %33 = landingpad { ptr, i32 }
          cleanup
  %34 = extractvalue { ptr, i32 } %33, 0
  store ptr %34, ptr %4, align 8
  %35 = extractvalue { ptr, i32 } %33, 1
  store i32 %35, ptr %5, align 4
  br label %63

36:                                               ; preds = %29
  call void @llvm.lifetime.start.p0(i64 4, ptr %8) #3
  call void @llvm.lifetime.start.p0(i64 32, ptr %9) #3
  %37 = invoke noundef ptr @_ZNK18TrafficTableDialog10trafficTabEv(ptr noundef align 8 dereferenceable_or_null(160) %10)
          to label %38 unwind label %49

38:                                               ; preds = %36
  invoke void @_ZN10TrafficTab15currentItemDataEi(ptr dead_on_unwind writable sret(%class.QVariant) align 8 %9, ptr noundef align 8 dereferenceable_or_null(130) %37, i32 noundef 261)
          to label %39 unwind label %49

39:                                               ; preds = %38
  %40 = invoke noundef i32 @_ZNK8QVariant5toIntEPb(ptr noundef align 8 dereferenceable_or_null(32) %9, ptr noundef null)
          to label %41 unwind label %53

41:                                               ; preds = %39
  call void @_ZN8QVariantD1Ev(ptr noundef align 8 dereferenceable_or_null(32) %9) #3
  call void @llvm.lifetime.end.p0(i64 32, ptr %9) #3
  store i32 %40, ptr %8, align 4
  %42 = load i32, ptr %7, align 4
  %43 = load i32, ptr %8, align 4
  invoke void @_ZN18ConversationDialog22openFollowStreamDialogEijj(ptr noundef align 8 dereferenceable_or_null(185) %10, i32 noundef %42, i32 noundef %43, i32 noundef 0)
          to label %44 unwind label %58

44:                                               ; preds = %41
  call void @llvm.lifetime.end.p0(i64 4, ptr %8) #3
  store i32 0, ptr %6, align 4
  br label %45

45:                                               ; preds = %44, %31
  call void @llvm.lifetime.end.p0(i64 4, ptr %7) #3
  br label %46

46:                                               ; preds = %45, %19
  call void @_ZN8QVariantD1Ev(ptr noundef align 8 dereferenceable_or_null(32) %3) #3
  call void @llvm.lifetime.end.p0(i64 32, ptr %3) #3
  %47 = load i32, ptr %6, align 4
  switch i32 %47, label %70 [
    i32 0, label %48
    i32 1, label %48
  ]

48:                                               ; preds = %14, %46, %46
  ret void

49:                                               ; preds = %38, %36
  %50 = landingpad { ptr, i32 }
          cleanup
  %51 = extractvalue { ptr, i32 } %50, 0
  store ptr %51, ptr %4, align 8
  %52 = extractvalue { ptr, i32 } %50, 1
  store i32 %52, ptr %5, align 4
  br label %57

53:                                               ; preds = %39
  %54 = landingpad { ptr, i32 }
          cleanup
  %55 = extractvalue { ptr, i32 } %54, 0
  store ptr %55, ptr %4, align 8
  %56 = extractvalue { ptr, i32 } %54, 1
  store i32 %56, ptr %5, align 4
  call void @_ZN8QVariantD1Ev(ptr noundef align 8 dereferenceable_or_null(32) %9) #3
  br label %57

57:                                               ; preds = %53, %49
  call void @llvm.lifetime.end.p0(i64 32, ptr %9) #3
  br label %62

58:                                               ; preds = %41
  %59 = landingpad { ptr, i32 }
          cleanup
  %60 = extractvalue { ptr, i32 } %59, 0
  store ptr %60, ptr %4, align 8
  %61 = extractvalue { ptr, i32 } %59, 1
  store i32 %61, ptr %5, align 4
  br label %62

62:                                               ; preds = %58, %57
  call void @llvm.lifetime.end.p0(i64 4, ptr %8) #3
  br label %63

63:                                               ; preds = %62, %32
  call void @llvm.lifetime.end.p0(i64 4, ptr %7) #3
  br label %64

64:                                               ; preds = %63, %20
  call void @_ZN8QVariantD1Ev(ptr noundef align 8 dereferenceable_or_null(32) %3) #3
  call void @llvm.lifetime.end.p0(i64 32, ptr %3) #3
  br label %65

65:                                               ; preds = %64
  %66 = load ptr, ptr %4, align 8
  %67 = load i32, ptr %5, align 4
  %68 = insertvalue { ptr, i32 } poison, ptr %66, 0
  %69 = insertvalue { ptr, i32 } %68, i32 %67, 1
  resume { ptr, i32 } %69

70:                                               ; preds = %46
  unreachable
}