; Function Attrs: mustprogress null_pointer_is_valid sspstrong uwtable
define void @_ZN18ConversationDialog12followStreamEv(ptr noundef align 8 dereferenceable_or_null(185) %0) #2 align 2 personality ptr @__gxx_personality_v0 {
  %2 = alloca %class.QVariant, align 8
  %3 = alloca %class.QVariant, align 8
  %4 = getelementptr inbounds nuw i8, ptr %0, i64 80
  %5 = load i8, ptr %4, align 8, !range !24, !noundef !25
  %6 = trunc nuw i8 %5 to i1
  br i1 %6, label %28, label %7

7:                                                ; preds = %1
  call void @llvm.lifetime.start.p0(i64 32, ptr nonnull %2) #21
  %8 = tail call noundef ptr @_ZNK18TrafficTableDialog10trafficTabEv(ptr noundef align 8 dereferenceable_or_null(160) %0)
  call void @_ZN10TrafficTab15currentItemDataEi(ptr dead_on_unwind nonnull writable sret(%class.QVariant) align 8 %2, ptr noundef align 8 dereferenceable_or_null(130) %8, i32 noundef 260)
  %9 = invoke noundef zeroext i1 @_ZNK8QVariant6isNullEv(ptr noundef nonnull align 8 dereferenceable_or_null(32) %2)
          to label %10 unwind label %11

10:                                               ; preds = %7
  br i1 %9, label %27, label %13

11:                                               ; preds = %7
  %12 = landingpad { ptr, i32 }
          cleanup
  br label %36

13:                                               ; preds = %10
  %14 = invoke noundef i32 @_ZNK8QVariant5toIntEPb(ptr noundef nonnull align 8 dereferenceable_or_null(32) %2, ptr noundef null)
          to label %15 unwind label %19

15:                                               ; preds = %13
  %16 = invoke ptr @get_follow_by_proto_id(i32 noundef %14)
          to label %17 unwind label %19

17:                                               ; preds = %15
  %18 = icmp eq ptr %16, null
  br i1 %18, label %27, label %21

19:                                               ; preds = %15, %13
  %20 = landingpad { ptr, i32 }
          cleanup
  br label %36

21:                                               ; preds = %17
  call void @llvm.lifetime.start.p0(i64 32, ptr nonnull %3) #21
  %22 = invoke noundef ptr @_ZNK18TrafficTableDialog10trafficTabEv(ptr noundef align 8 dereferenceable_or_null(160) %0)
          to label %23 unwind label %29

23:                                               ; preds = %21
  invoke void @_ZN10TrafficTab15currentItemDataEi(ptr dead_on_unwind nonnull writable sret(%class.QVariant) align 8 %3, ptr noundef align 8 dereferenceable_or_null(130) %22, i32 noundef 261)
          to label %24 unwind label %29

24:                                               ; preds = %23
  %25 = invoke noundef i32 @_ZNK8QVariant5toIntEPb(ptr noundef nonnull align 8 dereferenceable_or_null(32) %3, ptr noundef null)
          to label %26 unwind label %31

26:                                               ; preds = %24
  call void @_ZN8QVariantD1Ev(ptr noundef nonnull align 8 dereferenceable_or_null(32) %3) #21
  call void @llvm.lifetime.end.p0(i64 32, ptr nonnull %3) #21
  invoke void @_ZN18ConversationDialog22openFollowStreamDialogEijj(ptr noundef align 8 dereferenceable_or_null(185) %0, i32 noundef %14, i32 noundef %25, i32 noundef 0)
          to label %27 unwind label %34

27:                                               ; preds = %17, %26, %10
  call void @_ZN8QVariantD1Ev(ptr noundef nonnull align 8 dereferenceable_or_null(32) %2) #21
  call void @llvm.lifetime.end.p0(i64 32, ptr nonnull %2) #21
  br label %28

28:                                               ; preds = %1, %27
  ret void

29:                                               ; preds = %23, %21
  %30 = landingpad { ptr, i32 }
          cleanup
  br label %33

31:                                               ; preds = %24
  %32 = landingpad { ptr, i32 }
          cleanup
  call void @_ZN8QVariantD1Ev(ptr noundef nonnull align 8 dereferenceable_or_null(32) %3) #21
  br label %33

33:                                               ; preds = %31, %29
  %.pn = phi { ptr, i32 } [ %32, %31 ], [ %30, %29 ]
  call void @llvm.lifetime.end.p0(i64 32, ptr nonnull %3) #21
  br label %36

34:                                               ; preds = %26
  %35 = landingpad { ptr, i32 }
          cleanup
  br label %36

36:                                               ; preds = %19, %34, %33, %11
  %.pn10.pn.pn = phi { ptr, i32 } [ %12, %11 ], [ %20, %19 ], [ %35, %34 ], [ %.pn, %33 ]
  call void @_ZN8QVariantD1Ev(ptr noundef nonnull align 8 dereferenceable_or_null(32) %2) #21
  call void @llvm.lifetime.end.p0(i64 32, ptr nonnull %2) #21
  resume { ptr, i32 } %.pn10.pn.pn
}